target datalayout = "e-m:e-p270:32:32-p271:32:32-p272:64:64-i64:64-i128:128-f80:128-n8:16:32:64-S128"
target triple = "x86_64-pc-linux-gnu"

%struct.Curl_easy = type { i32, i64, ptr, ptr, ptr, %struct.Curl_llist_element, %struct.Curl_llist_element, i32, i32, %struct.Curl_message, %struct.easy_pollset, %struct.Names, ptr, ptr, ptr, %struct.SingleRequest, %struct.UserDefined, ptr, ptr, %struct.Progress, %struct.UrlState, ptr, %struct.PureInfo, %struct.curl_tlssessioninfo }
%struct.Curl_llist_element = type { ptr, ptr, ptr }
%struct.Curl_message = type { %struct.Curl_llist_element, %struct.CURLMsg }
%struct.CURLMsg = type { i32, ptr, %union.anon.3 }
%union.anon.3 = type { ptr }
%struct.easy_pollset = type { [5 x i32], i32, [5 x i8] }
%struct.Names = type { ptr, i32 }
%struct.SingleRequest = type <{ i64, i64, i64, i64, i64, %struct.curltime, i32, i32, i32, i32, i64, i32, i32, %struct.curltime, i32, i32, ptr, i64, i64, ptr, ptr, i64, ptr, %union.anon.4, ptr, [2 x i8], i8, i16, [3 x i8] }>
%struct.curltime = type { i64, i32 }
%union.anon.4 = type { ptr }
%struct.UserDefined = type <{ ptr, ptr, ptr, ptr, ptr, ptr, i16, [6 x i8], i64, i64, i64, ptr, ptr, i64, i16, i16, [4 x i8], ptr, ptr, ptr, ptr, ptr, ptr, ptr, ptr, ptr, ptr, ptr, ptr, ptr, ptr, ptr, ptr, ptr, ptr, ptr, ptr, ptr, ptr, ptr, i32, i32, i32, i32, i64, i64, i64, i64, i64, i64, i64, i64, ptr, ptr, %struct.curl_mimepart, ptr, ptr, i64, i8, i8, i8, [5 x i8], %struct.ssl_config_data, %struct.ssl_config_data, ptr, i16, i8, i8, [4 x i8], %struct.ssl_general_config, i32, i32, i32, [4 x i8], ptr, ptr, i8, [7 x i8], i64, i8, i8, i8, i8, i32, ptr, ptr, ptr, i8, i8, [2 x i8], i32, [80 x ptr], [8 x ptr], i32, i32, i32, [4 x i8], ptr, ptr, ptr, ptr, ptr, i8, [3 x i8], i32, i32, [4 x i8], i64, %struct.Curl_data_priority, ptr, ptr, i64, ptr, ptr, ptr, ptr, ptr, i8, [3 x i8], i32, i8, i8, i56, [6 x i8] }>
%struct.curl_mimepart = type { ptr, ptr, i32, i32, ptr, ptr, ptr, ptr, ptr, ptr, ptr, ptr, ptr, ptr, ptr, i64, %struct.mime_state, ptr, %struct.mime_encoder_state, i64 }
%struct.mime_state = type { i32, ptr, i64 }
%struct.mime_encoder_state = type { i64, i64, i64, [256 x i8] }
%struct.ssl_config_data = type { %struct.ssl_primary_config, i64, ptr, ptr, ptr, ptr, ptr, ptr, ptr, i8 }
%struct.ssl_primary_config = type { ptr, ptr, ptr, ptr, ptr, ptr, ptr, ptr, ptr, ptr, ptr, ptr, i8, i32, i8, i8 }
%struct.ssl_general_config = type { i64, i32 }
%struct.Curl_data_priority = type { ptr, ptr, i32, i8 }
%struct.Progress = type { i64, i64, i64, i64, i64, i64, i32, i32, i64, i64, i64, i64, i64, i64, i64, i64, i64, i64, %struct.curltime, %struct.curltime, %struct.curltime, %struct.curltime, %struct.curltime, i64, %struct.curltime, i64, [6 x i64], [6 x %struct.curltime], i32, i8 }
%struct.UrlState = type { ptr, %struct.curltime, i64, i64, %struct.dynbuf, ptr, ptr, ptr, i64, ptr, i32, i32, i32, ptr, i64, [3 x %struct.tempbuf], i32, i32, ptr, i64, i32, ptr, %struct.digestdata, %struct.digestdata, %struct.auth, %struct.auth, %struct.Curl_async, ptr, %struct.curltime, %struct.Curl_tree, %struct.Curl_llist, [15 x %struct.time_node], ptr, i8, i64, ptr, i64, i64, %struct.Curl_data_priority, ptr, ptr, ptr, %struct.urlpieces, ptr, ptr, ptr, ptr, ptr, i64, %struct.dynbuf, %struct.Curl_llist, [2 x %struct.curl_header], ptr, i32, ptr, %struct.dynamically_allocated_data, i8, i8, i8, i8, i24 }
%struct.tempbuf = type { %struct.dynbuf, i32, i8 }
%struct.digestdata = type { ptr, ptr, ptr, ptr, ptr, ptr, i32, i8, i8 }
%struct.auth = type { i64, i64, i64, i8 }
%struct.Curl_async = type { ptr, ptr, ptr, ptr, i32, i32, i8 }
%struct.Curl_tree = type { ptr, ptr, ptr, ptr, %struct.curltime, ptr }
%struct.time_node = type { %struct.Curl_llist_element, %struct.curltime, i32 }
%struct.urlpieces = type { ptr, ptr, ptr, ptr, ptr, ptr, ptr, ptr }
%struct.dynbuf = type { ptr, i64, i64, i64 }
%struct.Curl_llist = type { ptr, ptr, ptr, i64 }
%struct.curl_header = type { ptr, ptr, i64, i64, i32, ptr }
%struct.dynamically_allocated_data = type { ptr, ptr, ptr, ptr, ptr, ptr, ptr, ptr, ptr, ptr, ptr, ptr, ptr, ptr }
%struct.PureInfo = type { i32, i32, i32, i64, i64, i64, i64, i64, ptr, ptr, i64, i32, [46 x i8], i32, i32, [46 x i8], i32, ptr, i32, %struct.curl_certinfo, i32, i8 }
%struct.curl_certinfo = type { i32, ptr }
%struct.curl_tlssessioninfo = type { i32, ptr }

@.str.16 = private unnamed_addr constant [46 x i8] c"Failed to set SO_KEEPALIVE on fd %d: errno %d\00", align 1
@.str.17 = private unnamed_addr constant [46 x i8] c"Failed to set TCP_KEEPIDLE on fd %d: errno %d\00", align 1
@.str.18 = private unnamed_addr constant [47 x i8] c"Failed to set TCP_KEEPINTVL on fd %d: errno %d\00", align 1

; Function Attrs: nounwind uwtable
define internal void @tcpkeepalive(ptr noundef %0, i32 noundef %1) #0 {
  %3 = alloca ptr, align 8
  %4 = alloca i32, align 4
  %5 = alloca i32, align 4
  store ptr %0, ptr %3, align 8
  store i32 %1, ptr %4, align 4
  %6 = load ptr, ptr %3, align 8
  %7 = getelementptr inbounds %struct.Curl_easy, ptr %6, i32 0, i32 16
  %8 = getelementptr inbounds %struct.UserDefined, ptr %7, i32 0, i32 122
  %9 = load i64, ptr %8, align 2
  %10 = lshr i64 %9, 39
  %11 = and i64 %10, 1
  %12 = trunc i64 %11 to i32
  %13 = icmp ne i32 %12, 0
  %14 = select i1 %13, i32 1, i32 0
  store i32 %14, ptr %5, align 4
  %15 = load i32, ptr %4, align 4
  %16 = call i32 @setsockopt(i32 noundef %15, i32 noundef 1, i32 noundef 9, ptr noundef %5, i32 noundef 4) #7
  %17 = icmp slt i32 %16, 0
  br i1 %17, label %18, label %38

18:                                               ; preds = %2
  br label %19

19:                                               ; preds = %18
  %20 = load ptr, ptr %3, align 8
  %21 = icmp ne ptr %20, null
  br i1 %21, label %22, label %36

22:                                               ; preds = %19
  %23 = load ptr, ptr %3, align 8
  %24 = getelementptr inbounds %struct.Curl_easy, ptr %23, i32 0, i32 16
  %25 = getelementptr inbounds %struct.UserDefined, ptr %24, i32 0, i32 122
  %26 = load i64, ptr %25, align 2
  %27 = lshr i64 %26, 28
  %28 = and i64 %27, 1
  %29 = trunc i64 %28 to i32
  %30 = icmp ne i32 %29, 0
  br i1 %30, label %31, label %36

31:                                               ; preds = %22
  %32 = load ptr, ptr %3, align 8
  %33 = load i32, ptr %4, align 4
  %34 = call ptr @__errno_location() #8
  %35 = load i32, ptr %34, align 4
  call void (ptr, ptr, ...) @Curl_infof(ptr noundef %32, ptr noundef @.str.16, i32 noundef %33, i32 noundef %35)
  br label %36

36:                                               ; preds = %31, %22, %19
  br label %37

37:                                               ; preds = %36
  br label %99

38:                                               ; preds = %2
  %39 = load ptr, ptr %3, align 8
  %40 = getelementptr inbounds %struct.Curl_easy, ptr %39, i32 0, i32 16
  %41 = getelementptr inbounds %struct.UserDefined, ptr %40, i32 0, i32 104
  %42 = load i32, ptr %41, align 4
  %43 = sext i32 %42 to i64
  %44 = call i32 @curlx_sltosi(i64 noundef %43)
  store i32 %44, ptr %5, align 4
  %45 = load i32, ptr %4, align 4
  %46 = call i32 @setsockopt(i32 noundef %45, i32 noundef 6, i32 noundef 4, ptr noundef %5, i32 noundef 4) #7
  %47 = icmp slt i32 %46, 0
  br i1 %47, label %48, label %68

48:                                               ; preds = %38
  br label %49

49:                                               ; preds = %48
  %50 = load ptr, ptr %3, align 8
  %51 = icmp ne ptr %50, null
  br i1 %51, label %52, label %66

52:                                               ; preds = %49
  %53 = load ptr, ptr %3, align 8
  %54 = getelementptr inbounds %struct.Curl_easy, ptr %53, i32 0, i32 16
  %55 = getelementptr inbounds %struct.UserDefined, ptr %54, i32 0, i32 122
  %56 = load i64, ptr %55, align 2
  %57 = lshr i64 %56, 28
  %58 = and i64 %57, 1
  %59 = trunc i64 %58 to i32
  %60 = icmp ne i32 %59, 0
  br i1 %60, label %61, label %66

61:                                               ; preds = %52
  %62 = load ptr, ptr %3, align 8
  %63 = load i32, ptr %4, align 4
  %64 = call ptr @__errno_location() #8
  %65 = load i32, ptr %64, align 4
  call void (ptr, ptr, ...) @Curl_infof(ptr noundef %62, ptr noundef @.str.17, i32 noundef %63, i32 noundef %65)
  br label %66

66:                                               ; preds = %61, %52, %49
  br label %67

67:                                               ; preds = %66
  br label %68

68:                                               ; preds = %67, %38
  %69 = load ptr, ptr %3, align 8
  %70 = getelementptr inbounds %struct.Curl_easy, ptr %69, i32 0, i32 16
  %71 = getelementptr inbounds %struct.UserDefined, ptr %70, i32 0, i32 105
  %72 = load i32, ptr %71, align 8
  %73 = sext i32 %72 to i64
  %74 = call i32 @curlx_sltosi(i64 noundef %73)
  store i32 %74, ptr %5, align 4
  %75 = load i32, ptr %4, align 4
  %76 = call i32 @setsockopt(i32 noundef %75, i32 noundef 6, i32 noundef 5, ptr noundef %5, i32 noundef 4) #7
  %77 = icmp slt i32 %76, 0
  br i1 %77, label %78, label %98

78:                                               ; preds = %68
  br label %79

79:                                               ; preds = %78
  %80 = load ptr, ptr %3, align 8
  %81 = icmp ne ptr %80, null
  br i1 %81, label %82, label %96

82:                                               ; preds = %79
  %83 = load ptr, ptr %3, align 8
  %84 = getelementptr inbounds %struct.Curl_easy, ptr %83, i32 0, i32 16
  %85 = getelementptr inbounds %struct.UserDefined, ptr %84, i32 0, i32 122
  %86 = load i64, ptr %85, align 2
  %87 = lshr i64 %86, 28
  %88 = and i64 %87, 1
  %89 = trunc i64 %88 to i32
  %90 = icmp ne i32 %89, 0
  br i1 %90, label %91, label %96

91:                                               ; preds = %82
  %92 = load ptr, ptr %3, align 8
  %93 = load i32, ptr %4, align 4
  %94 = call ptr @__errno_location() #8
  %95 = load i32, ptr %94, align 4
  call void (ptr, ptr, ...) @Curl_infof(ptr noundef %92, ptr noundef @.str.18, i32 noundef %93, i32 noundef %95)
  br label %96

96:                                               ; preds = %91, %82, %79
  br label %97

97:                                               ; preds = %96
  br label %98

98:                                               ; preds = %97, %68
  br label %99

99:                                               ; preds = %98, %37
  ret void
}