; Function Attrs: nounwind uwtable
define internal fastcc void @tcpkeepalive(ptr noundef %0, i32 noundef %1) unnamed_addr #2 {
  %3 = alloca i32, align 4
  %4 = getelementptr inbounds nuw i8, ptr %0, i64 2642
  %5 = load i64, ptr %4, align 2
  %6 = lshr i64 %5, 39
  %7 = trunc nuw nsw i64 %6 to i32
  %8 = and i32 %7, 1
  store i32 %8, ptr %3, align 4
  %9 = call i32 @setsockopt(i32 noundef %1, i32 noundef 1, i32 noundef 9, ptr noundef nonnull %3, i32 noundef 4) #13
  %10 = icmp slt i32 %9, 0
  br i1 %10, label %11, label %14

11:                                               ; preds = %2
  %12 = load i64, ptr %4, align 2
  %13 = and i64 %12, 268435456
  %.not22 = icmp eq i64 %13, 0
  br i1 %.not22, label %39, label %.sink.split

14:                                               ; preds = %2
  %15 = getelementptr inbounds nuw i8, ptr %0, i64 2524
  %16 = load i32, ptr %15, align 4
  %17 = sext i32 %16 to i64
  %18 = call i32 @curlx_sltosi(i64 noundef %17) #13
  store i32 %18, ptr %3, align 4
  %19 = call i32 @setsockopt(i32 noundef %1, i32 noundef 6, i32 noundef 4, ptr noundef nonnull %3, i32 noundef 4) #13
  %20 = icmp slt i32 %19, 0
  br i1 %20, label %21, label %27

21:                                               ; preds = %14
  %22 = load i64, ptr %4, align 2
  %23 = and i64 %22, 268435456
  %.not = icmp eq i64 %23, 0
  br i1 %.not, label %27, label %24

24:                                               ; preds = %21
  %25 = tail call ptr @__errno_location() #14
  %26 = load i32, ptr %25, align 4
  call void (ptr, ptr, ...) @Curl_infof(ptr noundef nonnull %0, ptr noundef nonnull @.str.17, i32 noundef %1, i32 noundef %26) #13
  br label %27

27:                                               ; preds = %24, %21, %14
  %28 = getelementptr inbounds nuw i8, ptr %0, i64 2528
  %29 = load i32, ptr %28, align 8
  %30 = sext i32 %29 to i64
  %31 = call i32 @curlx_sltosi(i64 noundef %30) #13
  store i32 %31, ptr %3, align 4
  %32 = call i32 @setsockopt(i32 noundef %1, i32 noundef 6, i32 noundef 5, ptr noundef nonnull %3, i32 noundef 4) #13
  %33 = icmp slt i32 %32, 0
  br i1 %33, label %34, label %39

34:                                               ; preds = %27
  %35 = load i64, ptr %4, align 2
  %36 = and i64 %35, 268435456
  %.not20 = icmp eq i64 %36, 0
  br i1 %.not20, label %39, label %.sink.split

.sink.split:                                      ; preds = %34, %11
  %.str.18.sink = phi ptr [ @.str.16, %11 ], [ @.str.18, %34 ]
  %37 = tail call ptr @__errno_location() #14
  %38 = load i32, ptr %37, align 4
  call void (ptr, ptr, ...) @Curl_infof(ptr noundef nonnull %0, ptr noundef nonnull %.str.18.sink, i32 noundef %1, i32 noundef %38) #13
  br label %39

39:                                               ; preds = %.sink.split, %27, %34, %11
  ret void
}